target datalayout = "e-m:e-p270:32:32-p271:32:32-p272:64:64-i64:64-i128:128-f80:128-n8:16:32:64-S128"
target triple = "x86_64-pc-linux-gnu"

%struct.H5D_chk_idx_info_t = type { ptr, ptr, ptr, ptr }
%struct.H5O_storage_chunk_t = type { i32, i64, ptr, %union.anon.4 }
%union.anon.4 = type { %struct.H5O_storage_chunk_btree_t }
%struct.H5O_storage_chunk_btree_t = type { i64, ptr }
%struct.H5O_storage_chunk_earray_t = type { i64, ptr }

@H5D_init_g = external global i8, align 1
@H5_libterm_g = external global i8, align 1
@.str.2 = private unnamed_addr constant [103 x i8] c"generated/home/dtcxzyw/WorkSpace/Projects/compilers/llvm-opt-benchmark/bench/hdf5/hdf5/src/H5Dearray.c\00", align 1
@H5E_DATASET_g = external global i64, align 8
@H5E_CANTOPENOBJ_g = external global i64, align 8
@H5E_CANTINIT_g = external global i64, align 8
@.str.25 = private unnamed_addr constant [28 x i8] c"can't open extensible array\00", align 1
@__func__.H5D__earray_idx_copy_setup = private unnamed_addr constant [27 x i8] c"H5D__earray_idx_copy_setup\00", align 1
@.str.43 = private unnamed_addr constant [37 x i8] c"unable to initialize chunked storage\00", align 1

; Function Attrs: nounwind uwtable
define internal i32 @H5D__earray_idx_copy_setup(ptr noundef %0, ptr noundef %1) #0 {
  %3 = alloca i32, align 4
  %4 = alloca ptr, align 8
  %5 = alloca ptr, align 8
  %6 = alloca i32, align 4
  %7 = alloca i8, align 1
  %8 = alloca i64, align 8
  %9 = alloca i32, align 4
  store ptr %0, ptr %4, align 8, !tbaa !3
  store ptr %1, ptr %5, align 8, !tbaa !3
  call void @llvm.lifetime.start.p0(i64 4, ptr %6) #8
  store i32 0, ptr %6, align 4, !tbaa !12
  call void @llvm.lifetime.start.p0(i64 1, ptr %7) #8
  store i8 0, ptr %7, align 1, !tbaa !14
  %10 = load i8, ptr @H5D_init_g, align 1, !tbaa !14, !range !16, !noundef !17
  %11 = trunc i8 %10 to i1
  br i1 %11, label %16, label %12

12:                                               ; preds = %2
  %13 = load i8, ptr @H5_libterm_g, align 1, !tbaa !14, !range !16, !noundef !17
  %14 = trunc i8 %13 to i1
  %15 = xor i1 %14, true
  br label %16

16:                                               ; preds = %12, %2
  %17 = phi i1 [ true, %2 ], [ %15, %12 ]
  %18 = xor i1 %17, true
  %19 = xor i1 %18, true
  %20 = zext i1 %19 to i32
  %21 = sext i32 %20 to i64
  %22 = call i64 @llvm.expect.i64(i64 %21, i64 1)
  %23 = icmp ne i64 %22, 0
  br i1 %23, label %24, label %85

24:                                               ; preds = %16
  %25 = load ptr, ptr %4, align 8, !tbaa !3
  %26 = getelementptr inbounds nuw %struct.H5D_chk_idx_info_t, ptr %25, i32 0, i32 3
  %27 = load ptr, ptr %26, align 8, !tbaa !27
  %28 = getelementptr inbounds nuw %struct.H5O_storage_chunk_t, ptr %27, i32 0, i32 3
  %29 = getelementptr inbounds nuw %struct.H5O_storage_chunk_earray_t, ptr %28, i32 0, i32 1
  %30 = load ptr, ptr %29, align 8, !tbaa !26
  %31 = icmp ne ptr null, %30
  br i1 %31, label %56, label %32

32:                                               ; preds = %24
  %33 = load ptr, ptr %4, align 8, !tbaa !3
  %34 = call i32 @H5D__earray_idx_open(ptr noundef %33)
  %35 = icmp slt i32 %34, 0
  br i1 %35, label %36, label %55

36:                                               ; preds = %32
  br label %37

37:                                               ; preds = %36
  br label %38

38:                                               ; preds = %37
  br label %39

39:                                               ; preds = %38
  %40 = load i64, ptr @H5E_DATASET_g, align 8, !tbaa !10
  %41 = load i64, ptr @H5E_CANTOPENOBJ_g, align 8, !tbaa !10
  %42 = call i32 (ptr, ptr, i32, i64, i64, ptr, ...) @H5E_printf_stack(ptr noundef @.str.2, ptr noundef @__func__.H5D__earray_idx_copy_setup, i32 noundef 1604, i64 noundef %40, i64 noundef %41, ptr noundef @.str.25)
  br label %43

43:                                               ; preds = %39
  br label %44

44:                                               ; preds = %43
  store i8 1, ptr %7, align 1, !tbaa !14
  %45 = load i8, ptr %7, align 1, !tbaa !14, !range !16, !noundef !17
  %46 = trunc i8 %45 to i1
  %47 = zext i1 %46 to i8
  store i8 %47, ptr %7, align 1, !tbaa !14
  br label %48

48:                                               ; preds = %44
  br label %49

49:                                               ; preds = %48
  br label %50

50:                                               ; preds = %49
  store i32 -1, ptr %6, align 4, !tbaa !12
  br label %84

51:                                               ; No predecessors!
  br label %52

52:                                               ; preds = %51
  br label %53

53:                                               ; preds = %52
  br label %54

54:                                               ; preds = %53
  br label %55

55:                                               ; preds = %54, %32
  br label %56

56:                                               ; preds = %55, %24
  call void @llvm.lifetime.start.p0(i64 8, ptr %8) #8
  store i64 -1, ptr %8, align 8, !tbaa !10
  call void @H5AC_tag(i64 noundef 2, ptr noundef %8)
  %57 = load ptr, ptr %5, align 8, !tbaa !3
  %58 = call i32 @H5D__earray_idx_create(ptr noundef %57)
  %59 = icmp slt i32 %58, 0
  br i1 %59, label %60, label %79

60:                                               ; preds = %56
  br label %61

61:                                               ; preds = %60
  br label %62

62:                                               ; preds = %61
  br label %63

63:                                               ; preds = %62
  %64 = load i64, ptr @H5E_DATASET_g, align 8, !tbaa !10
  %65 = load i64, ptr @H5E_CANTINIT_g, align 8, !tbaa !10
  %66 = call i32 (ptr, ptr, i32, i64, i64, ptr, ...) @H5E_printf_stack(ptr noundef @.str.2, ptr noundef @__func__.H5D__earray_idx_copy_setup, i32 noundef 1611, i64 noundef %64, i64 noundef %65, ptr noundef @.str.43)
  br label %67

67:                                               ; preds = %63
  br label %68

68:                                               ; preds = %67
  store i8 1, ptr %7, align 1, !tbaa !14
  %69 = load i8, ptr %7, align 1, !tbaa !14, !range !16, !noundef !17
  %70 = trunc i8 %69 to i1
  %71 = zext i1 %70 to i8
  store i8 %71, ptr %7, align 1, !tbaa !14
  br label %72

72:                                               ; preds = %68
  br label %73

73:                                               ; preds = %72
  br label %74

74:                                               ; preds = %73
  store i32 -1, ptr %6, align 4, !tbaa !12
  store i32 10, ptr %9, align 4
  br label %81

75:                                               ; No predecessors!
  br label %76

76:                                               ; preds = %75
  br label %77

77:                                               ; preds = %76
  br label %78

78:                                               ; preds = %77
  br label %79

79:                                               ; preds = %78, %56
  %80 = load i64, ptr %8, align 8, !tbaa !10
  call void @H5AC_tag(i64 noundef %80, ptr noundef null)
  store i32 0, ptr %9, align 4
  br label %81

81:                                               ; preds = %74, %79
  call void @llvm.lifetime.end.p0(i64 8, ptr %8) #8
  %82 = load i32, ptr %9, align 4
  switch i32 %82, label %87 [
    i32 0, label %83
    i32 10, label %84
  ]

83:                                               ; preds = %81
  br label %84

84:                                               ; preds = %83, %81, %50
  br label %85

85:                                               ; preds = %84, %16
  %86 = load i32, ptr %6, align 4, !tbaa !12
  store i32 %86, ptr %3, align 4
  store i32 1, ptr %9, align 4
  br label %87

87:                                               ; preds = %85, %81
  call void @llvm.lifetime.end.p0(i64 1, ptr %7) #8
  call void @llvm.lifetime.end.p0(i64 4, ptr %6) #8
  %88 = load i32, ptr %3, align 4
  ret i32 %88
}