; Function Attrs: nounwind uwtable
define internal range(i32 -1, 1) i32 @H5D__earray_idx_copy_setup(ptr noundef readonly captures(none) %0, ptr noundef readonly captures(none) %1) #0 {
  %3 = alloca i64, align 8
  %4 = load i8, ptr @H5D_init_g, align 1, !tbaa !3, !range !7, !noundef !8
  %5 = trunc nuw i8 %4 to i1
  %6 = load i8, ptr @H5_libterm_g, align 1, !range !7
  %7 = trunc nuw i8 %6 to i1
  %8 = xor i1 %7, true
  %9 = select i1 %5, i1 true, i1 %8
  br i1 %9, label %10, label %32, !prof !9

10:                                               ; preds = %2
  %11 = getelementptr inbounds nuw i8, ptr %0, i64 24
  %12 = load ptr, ptr %11, align 8, !tbaa !22
  %13 = getelementptr inbounds nuw i8, ptr %12, i64 32
  %14 = load ptr, ptr %13, align 8, !tbaa !21
  %.not = icmp eq ptr %14, null
  br i1 %.not, label %15, label %22

15:                                               ; preds = %10
  %16 = tail call i32 @H5D__earray_idx_open(ptr noundef nonnull %0)
  %17 = icmp slt i32 %16, 0
  br i1 %17, label %18, label %22

18:                                               ; preds = %15
  %19 = load i64, ptr @H5E_DATASET_g, align 8, !tbaa !10
  %20 = load i64, ptr @H5E_CANTOPENOBJ_g, align 8, !tbaa !10
  %21 = tail call i32 (ptr, ptr, i32, i64, i64, ptr, ...) @H5E_printf_stack(ptr noundef nonnull @.str.2, ptr noundef nonnull @__func__.H5D__earray_idx_copy_setup, i32 noundef 1604, i64 noundef %19, i64 noundef %20, ptr noundef nonnull @.str.25) #11
  br label %32

22:                                               ; preds = %15, %10
  call void @llvm.lifetime.start.p0(i64 8, ptr nonnull %3) #11
  store i64 -1, ptr %3, align 8, !tbaa !10
  call void @H5AC_tag(i64 noundef 2, ptr noundef nonnull %3) #11
  %23 = call i32 @H5D__earray_idx_create(ptr noundef %1)
  %24 = icmp slt i32 %23, 0
  br i1 %24, label %25, label %29

25:                                               ; preds = %22
  %26 = load i64, ptr @H5E_DATASET_g, align 8, !tbaa !10
  %27 = load i64, ptr @H5E_CANTINIT_g, align 8, !tbaa !10
  %28 = call i32 (ptr, ptr, i32, i64, i64, ptr, ...) @H5E_printf_stack(ptr noundef nonnull @.str.2, ptr noundef nonnull @__func__.H5D__earray_idx_copy_setup, i32 noundef 1611, i64 noundef %26, i64 noundef %27, ptr noundef nonnull @.str.43) #11
  br label %31

29:                                               ; preds = %22
  %30 = load i64, ptr %3, align 8, !tbaa !10
  call void @H5AC_tag(i64 noundef %30, ptr noundef null) #11
  br label %31

31:                                               ; preds = %29, %25
  %.1 = phi i32 [ -1, %25 ], [ 0, %29 ]
  call void @llvm.lifetime.end.p0(i64 8, ptr nonnull %3) #11
  br label %32

32:                                               ; preds = %31, %2, %18
  %.08 = phi i32 [ %.1, %31 ], [ -1, %18 ], [ 0, %2 ]
  ret i32 %.08
}